TN:
SF:/home/vlad/vsCode/2_course/programming/labs/lab3/Test/ArrayTest.cpp
FN:108,115,_ZN22ArrayTest_GetSize_TestINSt7__cxx1112basic_stringIcSt11char_traitsIcESaIcEEEE8TestBodyEv
FN:108,115,_ZN22ArrayTest_GetSize_TestIiE8TestBodyEv
FN:117,152,_ZN20ArrayTest_Print_TestINSt7__cxx1112basic_stringIcSt11char_traitsIcESaIcEEEE8TestBodyEv
FN:117,152,_ZN20ArrayTest_Print_TestIiE8TestBodyEv
FN:15,15,_ZN9ArrayTestINSt7__cxx1112basic_stringIcSt11char_traitsIcESaIcEEEE5SetUpEv
FN:15,15,_ZN9ArrayTestIiE5SetUpEv
FN:154,191,_ZN26ArrayTest_WriteToFile_TestINSt7__cxx1112basic_stringIcSt11char_traitsIcESaIcEEEE8TestBodyEv
FN:154,191,_ZN26ArrayTest_WriteToFile_TestIiE8TestBodyEv
FN:17,17,_ZN9ArrayTestINSt7__cxx1112basic_stringIcSt11char_traitsIcESaIcEEEE8TearDownEv
FN:17,17,_ZN9ArrayTestIiE8TearDownEv
FN:193,208,_ZN27ArrayTest_fillFromFile_TestINSt7__cxx1112basic_stringIcSt11char_traitsIcESaIcEEEE8TestBodyEv
FN:193,208,_ZN27ArrayTest_fillFromFile_TestIiE8TestBodyEv
FN:210,223,_ZN21ArrayTest_resize_TestINSt7__cxx1112basic_stringIcSt11char_traitsIcESaIcEEEE8TestBodyEv
FN:210,223,_ZN21ArrayTest_resize_TestIiE8TestBodyEv
FN:225,238,_ZN24ArrayTest_throwTest_TestINSt7__cxx1112basic_stringIcSt11char_traitsIcESaIcEEEE8TestBodyEv
FN:225,238,_ZN24ArrayTest_throwTest_TestIiE8TestBodyEv
FN:240,243,main
FN:25,36,_ZN30ArrayTest_TestEmplaceBack_TestINSt7__cxx1112basic_stringIcSt11char_traitsIcESaIcEEEE8TestBodyEv
FN:25,36,_ZN30ArrayTest_TestEmplaceBack_TestIiE8TestBodyEv
FN:38,49,_ZN21ArrayTest_Insert_TestINSt7__cxx1112basic_stringIcSt11char_traitsIcESaIcEEEE8TestBodyEv
FN:38,49,_ZN21ArrayTest_Insert_TestIiE8TestBodyEv
FN:51,68,_ZN20ArrayTest_Erase_TestINSt7__cxx1112basic_stringIcSt11char_traitsIcESaIcEEEE8TestBodyEv
FN:51,68,_ZN20ArrayTest_Erase_TestIiE8TestBodyEv
FN:70,87,_ZN27ArrayTest_EraseByValue_TestINSt7__cxx1112basic_stringIcSt11char_traitsIcESaIcEEEE8TestBodyEv
FN:70,87,_ZN27ArrayTest_EraseByValue_TestIiE8TestBodyEv
FN:89,106,_ZN22ArrayTest_Replace_TestINSt7__cxx1112basic_stringIcSt11char_traitsIcESaIcEEEE8TestBodyEv
FN:89,106,_ZN22ArrayTest_Replace_TestIiE8TestBodyEv
FNDA:16,_ZN22ArrayTest_GetSize_TestINSt7__cxx1112basic_stringIcSt11char_traitsIcESaIcEEEE8TestBodyEv
FNDA:16,_ZN22ArrayTest_GetSize_TestIiE8TestBodyEv
FNDA:16,_ZN20ArrayTest_Print_TestINSt7__cxx1112basic_stringIcSt11char_traitsIcESaIcEEEE8TestBodyEv
FNDA:16,_ZN20ArrayTest_Print_TestIiE8TestBodyEv
FNDA:176,_ZN9ArrayTestINSt7__cxx1112basic_stringIcSt11char_traitsIcESaIcEEEE5SetUpEv
FNDA:176,_ZN9ArrayTestIiE5SetUpEv
FNDA:16,_ZN26ArrayTest_WriteToFile_TestINSt7__cxx1112basic_stringIcSt11char_traitsIcESaIcEEEE8TestBodyEv
FNDA:16,_ZN26ArrayTest_WriteToFile_TestIiE8TestBodyEv
FNDA:176,_ZN9ArrayTestINSt7__cxx1112basic_stringIcSt11char_traitsIcESaIcEEEE8TearDownEv
FNDA:176,_ZN9ArrayTestIiE8TearDownEv
FNDA:16,_ZN27ArrayTest_fillFromFile_TestINSt7__cxx1112basic_stringIcSt11char_traitsIcESaIcEEEE8TestBodyEv
FNDA:16,_ZN27ArrayTest_fillFromFile_TestIiE8TestBodyEv
FNDA:16,_ZN21ArrayTest_resize_TestINSt7__cxx1112basic_stringIcSt11char_traitsIcESaIcEEEE8TestBodyEv
FNDA:16,_ZN21ArrayTest_resize_TestIiE8TestBodyEv
FNDA:16,_ZN24ArrayTest_throwTest_TestINSt7__cxx1112basic_stringIcSt11char_traitsIcESaIcEEEE8TestBodyEv
FNDA:16,_ZN24ArrayTest_throwTest_TestIiE8TestBodyEv
FNDA:16,main
FNDA:16,_ZN30ArrayTest_TestEmplaceBack_TestINSt7__cxx1112basic_stringIcSt11char_traitsIcESaIcEEEE8TestBodyEv
FNDA:16,_ZN30ArrayTest_TestEmplaceBack_TestIiE8TestBodyEv
FNDA:16,_ZN21ArrayTest_Insert_TestINSt7__cxx1112basic_stringIcSt11char_traitsIcESaIcEEEE8TestBodyEv
FNDA:16,_ZN21ArrayTest_Insert_TestIiE8TestBodyEv
FNDA:16,_ZN20ArrayTest_Erase_TestINSt7__cxx1112basic_stringIcSt11char_traitsIcESaIcEEEE8TestBodyEv
FNDA:16,_ZN20ArrayTest_Erase_TestIiE8TestBodyEv
FNDA:16,_ZN27ArrayTest_EraseByValue_TestINSt7__cxx1112basic_stringIcSt11char_traitsIcESaIcEEEE8TestBodyEv
FNDA:16,_ZN27ArrayTest_EraseByValue_TestIiE8TestBodyEv
FNDA:16,_ZN22ArrayTest_Replace_TestINSt7__cxx1112basic_stringIcSt11char_traitsIcESaIcEEEE8TestBodyEv
FNDA:16,_ZN22ArrayTest_Replace_TestIiE8TestBodyEv
FNF:27
FNH:27
DA:15,352
DA:17,352
DA:25,32
DA:27,16
DA:28,16
DA:29,16
DA:32,16
DA:33,16
DA:34,16
DA:36,32
DA:38,32
DA:40,16
DA:41,16
DA:42,16
DA:45,16
DA:46,16
DA:47,16
DA:49,32
DA:51,32
DA:53,16
DA:54,16
DA:56,16
DA:58,16
DA:61,16
DA:62,16
DA:64,16
DA:66,16
DA:68,32
DA:70,32
DA:72,16
DA:73,16
DA:75,16
DA:77,16
DA:80,16
DA:81,16
DA:83,16
DA:85,16
DA:87,32
DA:89,32
DA:91,16
DA:92,16
DA:94,16
DA:96,16
DA:99,16
DA:100,16
DA:102,16
DA:104,16
DA:106,32
DA:108,32
DA:110,16
DA:113,16
DA:115,32
DA:117,32
DA:120,16
DA:122,16
DA:123,16
DA:124,16
DA:127,16
DA:130,16
DA:133,16
DA:135,16
DA:137,16
DA:139,16
DA:140,16
DA:141,16
DA:144,16
DA:147,16
DA:150,16
DA:151,16
DA:152,32
DA:154,32
DA:156,16
DA:158,16
DA:159,16
DA:160,16
DA:161,16
DA:162,16
DA:164,16
DA:167,32
DA:170,16
DA:171,16
DA:173,16
DA:174,16
DA:176,32
DA:177,32
DA:178,32
DA:179,32
DA:180,32
DA:182,16
DA:185,32
DA:188,16
DA:189,16
DA:190,16
DA:191,32
DA:193,32
DA:195,32
DA:198,16
DA:199,16
DA:202,32
DA:205,16
DA:206,16
DA:208,32
DA:210,32
DA:212,208
DA:213,192
DA:217,208
DA:218,192
DA:222,32
DA:223,32
DA:225,32
DA:226,32
DA:227,32
DA:230,16
DA:231,16
DA:234,48
DA:236,48
DA:238,32
DA:240,16
DA:241,16
DA:242,16
LF:120
LH:120
end_of_record
TN:
SF:/home/vlad/vsCode/2_course/programming/labs/lab3/Test/BinaryTreeTest.cpp
FN:103,124,_ZN30BinaryTreeTest_IsBalanced_TestINSt7__cxx1112basic_stringIcSt11char_traitsIcESaIcEEEE8TestBodyEv
FN:103,124,_ZN30BinaryTreeTest_IsBalanced_TestIiE8TestBodyEv
FN:136,139,main
FN:17,19,_ZN14BinaryTreeTestINSt7__cxx1112basic_stringIcSt11char_traitsIcESaIcEEEE5SetUpEv
FN:17,19,_ZN14BinaryTreeTestIiE5SetUpEv
FN:21,23,_ZN14BinaryTreeTestINSt7__cxx1112basic_stringIcSt11char_traitsIcESaIcEEEE8TearDownEv
FN:21,23,_ZN14BinaryTreeTestIiE8TearDownEv
FN:32,54,_ZN26BinaryTreeTest_Insert_TestINSt7__cxx1112basic_stringIcSt11char_traitsIcESaIcEEEE8TestBodyEv
FN:32,54,_ZN26BinaryTreeTest_Insert_TestIiE8TestBodyEv
FN:57,72,_ZN26BinaryTreeTest_Search_TestINSt7__cxx1112basic_stringIcSt11char_traitsIcESaIcEEEE8TestBodyEv
FN:57,72,_ZN26BinaryTreeTest_Search_TestIiE8TestBodyEv
FN:75,100,_ZN36BinaryTreeTest_InorderTraversal_TestINSt7__cxx1112basic_stringIcSt11char_traitsIcESaIcEEEE8TestBodyEv
FN:75,100,_ZN36BinaryTreeTest_InorderTraversal_TestIiE8TestBodyEv
FNDA:14,_ZN30BinaryTreeTest_IsBalanced_TestINSt7__cxx1112basic_stringIcSt11char_traitsIcESaIcEEEE8TestBodyEv
FNDA:14,_ZN30BinaryTreeTest_IsBalanced_TestIiE8TestBodyEv
FNDA:14,main
FNDA:56,_ZN14BinaryTreeTestINSt7__cxx1112basic_stringIcSt11char_traitsIcESaIcEEEE5SetUpEv
FNDA:56,_ZN14BinaryTreeTestIiE5SetUpEv
FNDA:56,_ZN14BinaryTreeTestINSt7__cxx1112basic_stringIcSt11char_traitsIcESaIcEEEE8TearDownEv
FNDA:56,_ZN14BinaryTreeTestIiE8TearDownEv
FNDA:14,_ZN26BinaryTreeTest_Insert_TestINSt7__cxx1112basic_stringIcSt11char_traitsIcESaIcEEEE8TestBodyEv
FNDA:14,_ZN26BinaryTreeTest_Insert_TestIiE8TestBodyEv
FNDA:14,_ZN26BinaryTreeTest_Search_TestINSt7__cxx1112basic_stringIcSt11char_traitsIcESaIcEEEE8TestBodyEv
FNDA:14,_ZN26BinaryTreeTest_Search_TestIiE8TestBodyEv
FNDA:14,_ZN36BinaryTreeTest_InorderTraversal_TestINSt7__cxx1112basic_stringIcSt11char_traitsIcESaIcEEEE8TestBodyEv
FNDA:14,_ZN36BinaryTreeTest_InorderTraversal_TestIiE8TestBodyEv
FNF:13
FNH:13
DA:17,112
DA:19,112
DA:21,112
DA:23,112
DA:32,28
DA:34,14
DA:35,14
DA:36,14
DA:37,14
DA:39,14
DA:41,14
DA:43,14
DA:46,28
DA:47,28
DA:48,28
DA:50,42
DA:51,42
DA:52,42
DA:54,28
DA:57,28
DA:59,14
DA:60,14
DA:61,14
DA:63,14
DA:64,14
DA:66,28
DA:67,28
DA:69,42
DA:70,42
DA:72,28
DA:75,28
DA:77,14
DA:78,14
DA:79,14
DA:80,14
DA:81,14
DA:82,14
DA:83,14
DA:86,14
DA:87,14
DA:88,14
DA:89,14
DA:90,14
DA:91,28
DA:92,28
DA:93,28
DA:95,14
DA:96,14
DA:97,14
DA:98,14
DA:99,14
DA:100,28
DA:103,28
DA:105,14
DA:106,14
DA:107,14
DA:109,14
DA:113,14
DA:114,14
DA:116,14
DA:119,28
DA:120,28
DA:122,14
DA:124,28
DA:136,14
DA:137,14
DA:138,14
LF:67
LH:67
end_of_record
TN:
SF:/home/vlad/vsCode/2_course/programming/labs/lab3/Test/DListTest.cpp
FN:100,118,_ZN28DListTest_SearchByValue_TestINSt7__cxx1112basic_stringIcSt11char_traitsIcESaIcEEEE8TestBodyEv
FN:100,118,_ZN28DListTest_SearchByValue_TestIiE8TestBodyEv
FN:121,135,_ZN29DListTest_AccessOperator_TestINSt7__cxx1112basic_stringIcSt11char_traitsIcESaIcEEEE8TestBodyEv
FN:121,135,_ZN29DListTest_AccessOperator_TestIiE8TestBodyEv
FN:138,156,_ZN20DListTest_Print_TestINSt7__cxx1112basic_stringIcSt11char_traitsIcESaIcEEEE8TestBodyEv
FN:138,156,_ZN20DListTest_Print_TestIiE8TestBodyEv
FN:159,171,_ZN27DListTest_FillFromFile_TestINSt7__cxx1112basic_stringIcSt11char_traitsIcESaIcEEEE8TestBodyEv
FN:159,171,_ZN27DListTest_FillFromFile_TestIiE8TestBodyEv
FN:16,16,_ZN9DListTestINSt7__cxx1112basic_stringIcSt11char_traitsIcESaIcEEEE5SetUpEv
FN:16,16,_ZN9DListTestIiE5SetUpEv
FN:174,200,_ZN26DListTest_WriteToFile_TestINSt7__cxx1112basic_stringIcSt11char_traitsIcESaIcEEEE8TestBodyEv
FN:174,200,_ZN26DListTest_WriteToFile_TestIiE8TestBodyEv
FN:18,18,_ZN9DListTestINSt7__cxx1112basic_stringIcSt11char_traitsIcESaIcEEEE8TearDownEv
FN:18,18,_ZN9DListTestIiE8TearDownEv
FN:203,214,_ZN24DListTest_ThrowTest_TestINSt7__cxx1112basic_stringIcSt11char_traitsIcESaIcEEEE8TestBodyEv
FN:203,214,_ZN24DListTest_ThrowTest_TestIiE8TestBodyEv
FN:216,219,main
FN:27,37,_ZN23DListTest_PushBack_TestINSt7__cxx1112basic_stringIcSt11char_traitsIcESaIcEEEE8TestBodyEv
FN:27,37,_ZN23DListTest_PushBack_TestIiE8TestBodyEv
FN:40,50,_ZN24DListTest_PushFront_TestINSt7__cxx1112basic_stringIcSt11char_traitsIcESaIcEEEE8TestBodyEv
FN:40,50,_ZN24DListTest_PushFront_TestIiE8TestBodyEv
FN:53,65,_ZN23DListTest_PopFront_TestINSt7__cxx1112basic_stringIcSt11char_traitsIcESaIcEEEE8TestBodyEv
FN:53,65,_ZN23DListTest_PopFront_TestIiE8TestBodyEv
FN:68,80,_ZN22DListTest_PopBack_TestINSt7__cxx1112basic_stringIcSt11char_traitsIcESaIcEEEE8TestBodyEv
FN:68,80,_ZN22DListTest_PopBack_TestIiE8TestBodyEv
FN:83,97,_ZN23DListTest_PopValue_TestINSt7__cxx1112basic_stringIcSt11char_traitsIcESaIcEEEE8TestBodyEv
FN:83,97,_ZN23DListTest_PopValue_TestIiE8TestBodyEv
FNDA:11,_ZN28DListTest_SearchByValue_TestINSt7__cxx1112basic_stringIcSt11char_traitsIcESaIcEEEE8TestBodyEv
FNDA:11,_ZN28DListTest_SearchByValue_TestIiE8TestBodyEv
FNDA:11,_ZN29DListTest_AccessOperator_TestINSt7__cxx1112basic_stringIcSt11char_traitsIcESaIcEEEE8TestBodyEv
FNDA:11,_ZN29DListTest_AccessOperator_TestIiE8TestBodyEv
FNDA:11,_ZN20DListTest_Print_TestINSt7__cxx1112basic_stringIcSt11char_traitsIcESaIcEEEE8TestBodyEv
FNDA:11,_ZN20DListTest_Print_TestIiE8TestBodyEv
FNDA:11,_ZN27DListTest_FillFromFile_TestINSt7__cxx1112basic_stringIcSt11char_traitsIcESaIcEEEE8TestBodyEv
FNDA:11,_ZN27DListTest_FillFromFile_TestIiE8TestBodyEv
FNDA:121,_ZN9DListTestINSt7__cxx1112basic_stringIcSt11char_traitsIcESaIcEEEE5SetUpEv
FNDA:121,_ZN9DListTestIiE5SetUpEv
FNDA:11,_ZN26DListTest_WriteToFile_TestINSt7__cxx1112basic_stringIcSt11char_traitsIcESaIcEEEE8TestBodyEv
FNDA:11,_ZN26DListTest_WriteToFile_TestIiE8TestBodyEv
FNDA:121,_ZN9DListTestINSt7__cxx1112basic_stringIcSt11char_traitsIcESaIcEEEE8TearDownEv
FNDA:121,_ZN9DListTestIiE8TearDownEv
FNDA:11,_ZN24DListTest_ThrowTest_TestINSt7__cxx1112basic_stringIcSt11char_traitsIcESaIcEEEE8TestBodyEv
FNDA:11,_ZN24DListTest_ThrowTest_TestIiE8TestBodyEv
FNDA:11,main
FNDA:11,_ZN23DListTest_PushBack_TestINSt7__cxx1112basic_stringIcSt11char_traitsIcESaIcEEEE8TestBodyEv
FNDA:11,_ZN23DListTest_PushBack_TestIiE8TestBodyEv
FNDA:11,_ZN24DListTest_PushFront_TestINSt7__cxx1112basic_stringIcSt11char_traitsIcESaIcEEEE8TestBodyEv
FNDA:11,_ZN24DListTest_PushFront_TestIiE8TestBodyEv
FNDA:11,_ZN23DListTest_PopFront_TestINSt7__cxx1112basic_stringIcSt11char_traitsIcESaIcEEEE8TestBodyEv
FNDA:11,_ZN23DListTest_PopFront_TestIiE8TestBodyEv
FNDA:11,_ZN22DListTest_PopBack_TestINSt7__cxx1112basic_stringIcSt11char_traitsIcESaIcEEEE8TestBodyEv
FNDA:11,_ZN22DListTest_PopBack_TestIiE8TestBodyEv
FNDA:11,_ZN23DListTest_PopValue_TestINSt7__cxx1112basic_stringIcSt11char_traitsIcESaIcEEEE8TestBodyEv
FNDA:11,_ZN23DListTest_PopValue_TestIiE8TestBodyEv
FNF:27
FNH:27
DA:16,242
DA:18,242
DA:27,22
DA:29,11
DA:30,11
DA:31,11
DA:33,22
DA:34,22
DA:35,11
DA:37,22
DA:40,22
DA:42,11
DA:43,11
DA:44,11
DA:46,22
DA:47,22
DA:48,11
DA:50,22
DA:53,22
DA:55,11
DA:56,11
DA:57,11
DA:58,11
DA:60,22
DA:61,22
DA:62,11
DA:63,11
DA:65,22
DA:68,22
DA:70,11
DA:71,11
DA:72,11
DA:73,11
DA:75,22
DA:76,22
DA:77,11
DA:78,11
DA:80,22
DA:83,22
DA:85,11
DA:86,11
DA:87,11
DA:88,11
DA:89,11
DA:91,22
DA:92,22
DA:93,22
DA:94,22
DA:95,11
DA:97,22
DA:100,22
DA:102,11
DA:103,11
DA:105,11
DA:106,11
DA:107,11
DA:108,11
DA:109,11
DA:110,22
DA:111,22
DA:113,11
DA:114,22
DA:115,11
DA:116,11
DA:117,11
DA:118,22
DA:121,22
DA:123,11
DA:124,11
DA:125,11
DA:126,11
DA:127,11
DA:129,22
DA:130,22
DA:131,11
DA:132,11
DA:133,11
DA:135,22
DA:138,22
DA:140,11
DA:141,11
DA:142,11
DA:143,11
DA:144,11
DA:145,11
DA:146,11
DA:147,11
DA:148,11
DA:149,22
DA:150,22
DA:151,22
DA:152,11
DA:153,11
DA:154,11
DA:155,11
DA:156,22
DA:159,22
DA:161,22
DA:163,11
DA:164,11
DA:166,22
DA:168,11
DA:169,11
DA:171,22
DA:174,22
DA:176,11
DA:177,11
DA:178,11
DA:179,22
DA:182,11
DA:183,11
DA:185,11
DA:186,11
DA:187,11
DA:188,22
DA:189,22
DA:190,22
DA:191,22
DA:194,11
DA:195,11
DA:197,11
DA:198,11
DA:199,11
DA:200,22
DA:203,22
DA:204,22
DA:205,22
DA:206,22
DA:209,11
DA:212,33
DA:214,22
DA:216,11
DA:217,11
DA:218,11
LF:134
LH:134
end_of_record
TN:
SF:/home/vlad/vsCode/2_course/programming/labs/lab3/Test/OListTest.cpp
FN:105,121,_ZN32OListTest_TestSearchByValue_TestINSt7__cxx1112basic_stringIcSt11char_traitsIcESaIcEEEE8TestBodyEv
FN:105,121,_ZN32OListTest_TestSearchByValue_TestIiE8TestBodyEv
FN:124,136,_ZN34OListTest_TestOperatorBracket_TestINSt7__cxx1112basic_stringIcSt11char_traitsIcESaIcEEEE8TestBodyEv
FN:124,136,_ZN34OListTest_TestOperatorBracket_TestIiE8TestBodyEv
FN:139,141,_ZN45OListTest_TestOperatorBracketOutOfBounds_TestINSt7__cxx1112basic_stringIcSt11char_traitsIcESaIcEEEE8TestBodyEv
FN:139,141,_ZN45OListTest_TestOperatorBracketOutOfBounds_TestIiE8TestBodyEv
FN:144,156,_ZN31OListTest_TestFillFromFile_TestINSt7__cxx1112basic_stringIcSt11char_traitsIcESaIcEEEE8TestBodyEv
FN:144,156,_ZN31OListTest_TestFillFromFile_TestIiE8TestBodyEv
FN:159,188,_ZN30OListTest_TestWriteToFile_TestINSt7__cxx1112basic_stringIcSt11char_traitsIcESaIcEEEE8TestBodyEv
FN:159,188,_ZN30OListTest_TestWriteToFile_TestIiE8TestBodyEv
FN:18,18,_ZN9OListTestINSt7__cxx1112basic_stringIcSt11char_traitsIcESaIcEEEE5SetUpEv
FN:18,18,_ZN9OListTestIiE5SetUpEv
FN:19,19,_ZN9OListTestINSt7__cxx1112basic_stringIcSt11char_traitsIcESaIcEEEE8TearDownEv
FN:19,19,_ZN9OListTestIiE8TearDownEv
FN:190,217,_ZN24OListTest_TestPrint_TestINSt7__cxx1112basic_stringIcSt11char_traitsIcESaIcEEEE8TestBodyEv
FN:190,217,_ZN24OListTest_TestPrint_TestIiE8TestBodyEv
FN:219,223,_ZN24OListTest_throwTest_TestINSt7__cxx1112basic_stringIcSt11char_traitsIcESaIcEEEE8TestBodyEv
FN:219,223,_ZN24OListTest_throwTest_TestIiE8TestBodyEv
FN:225,228,main
FN:28,40,_ZN27OListTest_TestPushBack_TestINSt7__cxx1112basic_stringIcSt11char_traitsIcESaIcEEEE8TestBodyEv
FN:28,40,_ZN27OListTest_TestPushBack_TestIiE8TestBodyEv
FN:43,55,_ZN28OListTest_TestPushFront_TestINSt7__cxx1112basic_stringIcSt11char_traitsIcESaIcEEEE8TestBodyEv
FN:43,55,_ZN28OListTest_TestPushFront_TestIiE8TestBodyEv
FN:58,70,_ZN27OListTest_TestPopFront_TestINSt7__cxx1112basic_stringIcSt11char_traitsIcESaIcEEEE8TestBodyEv
FN:58,70,_ZN27OListTest_TestPopFront_TestIiE8TestBodyEv
FN:73,85,_ZN26OListTest_TestPopBack_TestINSt7__cxx1112basic_stringIcSt11char_traitsIcESaIcEEEE8TestBodyEv
FN:73,85,_ZN26OListTest_TestPopBack_TestIiE8TestBodyEv
FN:88,102,_ZN27OListTest_TestPopValue_TestINSt7__cxx1112basic_stringIcSt11char_traitsIcESaIcEEEE8TestBodyEv
FN:88,102,_ZN27OListTest_TestPopValue_TestIiE8TestBodyEv
FNDA:7,_ZN32OListTest_TestSearchByValue_TestINSt7__cxx1112basic_stringIcSt11char_traitsIcESaIcEEEE8TestBodyEv
FNDA:7,_ZN32OListTest_TestSearchByValue_TestIiE8TestBodyEv
FNDA:7,_ZN34OListTest_TestOperatorBracket_TestINSt7__cxx1112basic_stringIcSt11char_traitsIcESaIcEEEE8TestBodyEv
FNDA:7,_ZN34OListTest_TestOperatorBracket_TestIiE8TestBodyEv
FNDA:7,_ZN45OListTest_TestOperatorBracketOutOfBounds_TestINSt7__cxx1112basic_stringIcSt11char_traitsIcESaIcEEEE8TestBodyEv
FNDA:7,_ZN45OListTest_TestOperatorBracketOutOfBounds_TestIiE8TestBodyEv
FNDA:7,_ZN31OListTest_TestFillFromFile_TestINSt7__cxx1112basic_stringIcSt11char_traitsIcESaIcEEEE8TestBodyEv
FNDA:7,_ZN31OListTest_TestFillFromFile_TestIiE8TestBodyEv
FNDA:7,_ZN30OListTest_TestWriteToFile_TestINSt7__cxx1112basic_stringIcSt11char_traitsIcESaIcEEEE8TestBodyEv
FNDA:7,_ZN30OListTest_TestWriteToFile_TestIiE8TestBodyEv
FNDA:84,_ZN9OListTestINSt7__cxx1112basic_stringIcSt11char_traitsIcESaIcEEEE5SetUpEv
FNDA:84,_ZN9OListTestIiE5SetUpEv
FNDA:84,_ZN9OListTestINSt7__cxx1112basic_stringIcSt11char_traitsIcESaIcEEEE8TearDownEv
FNDA:84,_ZN9OListTestIiE8TearDownEv
FNDA:7,_ZN24OListTest_TestPrint_TestINSt7__cxx1112basic_stringIcSt11char_traitsIcESaIcEEEE8TestBodyEv
FNDA:7,_ZN24OListTest_TestPrint_TestIiE8TestBodyEv
FNDA:7,_ZN24OListTest_throwTest_TestINSt7__cxx1112basic_stringIcSt11char_traitsIcESaIcEEEE8TestBodyEv
FNDA:7,_ZN24OListTest_throwTest_TestIiE8TestBodyEv
FNDA:7,main
FNDA:7,_ZN27OListTest_TestPushBack_TestINSt7__cxx1112basic_stringIcSt11char_traitsIcESaIcEEEE8TestBodyEv
FNDA:7,_ZN27OListTest_TestPushBack_TestIiE8TestBodyEv
FNDA:7,_ZN28OListTest_TestPushFront_TestINSt7__cxx1112basic_stringIcSt11char_traitsIcESaIcEEEE8TestBodyEv
FNDA:7,_ZN28OListTest_TestPushFront_TestIiE8TestBodyEv
FNDA:7,_ZN27OListTest_TestPopFront_TestINSt7__cxx1112basic_stringIcSt11char_traitsIcESaIcEEEE8TestBodyEv
FNDA:7,_ZN27OListTest_TestPopFront_TestIiE8TestBodyEv
FNDA:7,_ZN26OListTest_TestPopBack_TestINSt7__cxx1112basic_stringIcSt11char_traitsIcESaIcEEEE8TestBodyEv
FNDA:7,_ZN26OListTest_TestPopBack_TestIiE8TestBodyEv
FNDA:7,_ZN27OListTest_TestPopValue_TestINSt7__cxx1112basic_stringIcSt11char_traitsIcESaIcEEEE8TestBodyEv
FNDA:7,_ZN27OListTest_TestPopValue_TestIiE8TestBodyEv
FNF:29
FNH:29
DA:18,168
DA:19,168
DA:28,14
DA:30,7
DA:31,7
DA:32,7
DA:33,7
DA:35,14
DA:36,14
DA:37,7
DA:38,7
DA:40,14
DA:43,14
DA:45,7
DA:46,7
DA:47,7
DA:48,7
DA:50,14
DA:51,14
DA:52,7
DA:53,7
DA:55,14
DA:58,14
DA:60,7
DA:61,7
DA:62,7
DA:63,7
DA:65,14
DA:66,14
DA:67,7
DA:68,7
DA:70,14
DA:73,14
DA:75,7
DA:76,7
DA:77,7
DA:78,7
DA:80,14
DA:81,14
DA:82,7
DA:83,7
DA:85,14
DA:88,14
DA:90,7
DA:91,7
DA:92,7
DA:93,7
DA:94,7
DA:96,14
DA:97,14
DA:98,14
DA:99,14
DA:100,7
DA:102,14
DA:105,14
DA:106,14
DA:109,7
DA:110,7
DA:111,7
DA:113,14
DA:114,14
DA:115,14
DA:118,14
DA:119,14
DA:121,14
DA:124,14
DA:126,7
DA:127,7
DA:128,7
DA:129,7
DA:131,14
DA:132,14
DA:133,7
DA:134,7
DA:136,14
DA:139,14
DA:140,14
DA:141,14
DA:144,14
DA:146,14
DA:148,7
DA:149,7
DA:151,14
DA:153,7
DA:154,7
DA:156,14
DA:159,14
DA:161,7
DA:162,7
DA:163,14
DA:167,7
DA:170,7
DA:171,7
DA:172,7
DA:173,7
DA:174,7
DA:175,14
DA:176,14
DA:177,14
DA:180,7
DA:182,7
DA:183,7
DA:184,7
DA:185,7
DA:186,7
DA:187,7
DA:188,14
DA:190,14
DA:192,14
DA:196,7
DA:197,7
DA:198,7
DA:200,14
DA:201,14
DA:202,14
DA:206,14
DA:209,14
DA:213,7
DA:215,7
DA:217,14
DA:219,14
DA:220,14
DA:221,14
DA:222,14
DA:223,14
DA:225,7
DA:226,7
DA:227,7
LF:128
LH:128
end_of_record
TN:
SF:/home/vlad/vsCode/2_course/programming/labs/lab3/Test/QueueTest.cpp
FN:104,153,_ZN38QueueTest_TestWriteToFileWithType_TestINSt7__cxx1112basic_stringIcSt11char_traitsIcESaIcEEEE8TestBodyEv
FN:104,153,_ZN38QueueTest_TestWriteToFileWithType_TestIiE8TestBodyEv
FN:156,175,_ZN26QueueTest_TestGetSize_TestINSt7__cxx1112basic_stringIcSt11char_traitsIcESaIcEEEE8TestBodyEv
FN:156,175,_ZN26QueueTest_TestGetSize_TestIiE8TestBodyEv
FN:17,17,_ZN9QueueTestINSt7__cxx1112basic_stringIcSt11char_traitsIcESaIcEEEE5SetUpEv
FN:17,17,_ZN9QueueTestIiE5SetUpEv
FN:18,18,_ZN9QueueTestINSt7__cxx1112basic_stringIcSt11char_traitsIcESaIcEEEE8TearDownEv
FN:18,18,_ZN9QueueTestIiE8TearDownEv
FN:26,40,_ZN23QueueTest_TestPush_TestINSt7__cxx1112basic_stringIcSt11char_traitsIcESaIcEEEE8TestBodyEv
FN:26,40,_ZN23QueueTest_TestPush_TestIiE8TestBodyEv
FN:43,59,_ZN22QueueTest_TestPop_TestINSt7__cxx1112basic_stringIcSt11char_traitsIcESaIcEEEE8TestBodyEv
FN:43,59,_ZN22QueueTest_TestPop_TestIiE8TestBodyEv
FN:62,87,_ZN24QueueTest_TestPrint_TestINSt7__cxx1112basic_stringIcSt11char_traitsIcESaIcEEEE8TestBodyEv
FN:62,87,_ZN24QueueTest_TestPrint_TestIiE8TestBodyEv
FN:90,101,_ZN31QueueTest_TestFillFromFile_TestINSt7__cxx1112basic_stringIcSt11char_traitsIcESaIcEEEE8TestBodyEv
FN:90,101,_ZN31QueueTest_TestFillFromFile_TestIiE8TestBodyEv
FNDA:8,_ZN38QueueTest_TestWriteToFileWithType_TestINSt7__cxx1112basic_stringIcSt11char_traitsIcESaIcEEEE8TestBodyEv
FNDA:8,_ZN38QueueTest_TestWriteToFileWithType_TestIiE8TestBodyEv
FNDA:8,_ZN26QueueTest_TestGetSize_TestINSt7__cxx1112basic_stringIcSt11char_traitsIcESaIcEEEE8TestBodyEv
FNDA:8,_ZN26QueueTest_TestGetSize_TestIiE8TestBodyEv
FNDA:48,_ZN9QueueTestINSt7__cxx1112basic_stringIcSt11char_traitsIcESaIcEEEE5SetUpEv
FNDA:48,_ZN9QueueTestIiE5SetUpEv
FNDA:48,_ZN9QueueTestINSt7__cxx1112basic_stringIcSt11char_traitsIcESaIcEEEE8TearDownEv
FNDA:48,_ZN9QueueTestIiE8TearDownEv
FNDA:8,_ZN23QueueTest_TestPush_TestINSt7__cxx1112basic_stringIcSt11char_traitsIcESaIcEEEE8TestBodyEv
FNDA:8,_ZN23QueueTest_TestPush_TestIiE8TestBodyEv
FNDA:8,_ZN22QueueTest_TestPop_TestINSt7__cxx1112basic_stringIcSt11char_traitsIcESaIcEEEE8TestBodyEv
FNDA:8,_ZN22QueueTest_TestPop_TestIiE8TestBodyEv
FNDA:8,_ZN24QueueTest_TestPrint_TestINSt7__cxx1112basic_stringIcSt11char_traitsIcESaIcEEEE8TestBodyEv
FNDA:8,_ZN24QueueTest_TestPrint_TestIiE8TestBodyEv
FNDA:8,_ZN31QueueTest_TestFillFromFile_TestINSt7__cxx1112basic_stringIcSt11char_traitsIcESaIcEEEE8TestBodyEv
FNDA:8,_ZN31QueueTest_TestFillFromFile_TestIiE8TestBodyEv
FNF:16
FNH:16
DA:17,96
DA:18,96
DA:26,16
DA:29,8
DA:30,8
DA:31,8
DA:32,8
DA:35,16
DA:36,16
DA:37,16
DA:38,8
DA:40,16
DA:43,16
DA:46,8
DA:47,8
DA:48,8
DA:49,8
DA:50,8
DA:53,16
DA:54,16
DA:55,16
DA:56,8
DA:57,8
DA:59,16
DA:62,16
DA:63,16
DA:67,8
DA:68,8
DA:69,8
DA:70,8
DA:72,8
DA:73,8
DA:75,8
DA:77,16
DA:78,16
DA:79,16
DA:80,8
DA:82,8
DA:83,8
DA:86,8
DA:87,16
DA:90,16
DA:93,16
DA:95,8
DA:97,16
DA:99,8
DA:101,16
DA:104,16
DA:106,16
DA:109,16
DA:113,8
DA:114,8
DA:115,8
DA:121,16
DA:122,16
DA:123,16
DA:127,32
DA:131,16
DA:135,16
DA:137,16
DA:138,16
DA:142,8
DA:143,0
DA:148,8
DA:149,0
DA:152,16
DA:153,16
DA:156,16
DA:157,16
DA:161,8
DA:162,8
DA:163,8
DA:166,16
DA:167,16
DA:168,8
DA:175,16
LF:76
LH:74
end_of_record
TN:
SF:/home/vlad/vsCode/2_course/programming/labs/lab3/Test/SetTest.cpp
FN:107,116,_ZN23SetTest_TestResize_TestINSt7__cxx1112basic_stringIcSt11char_traitsIcESaIcEEEE8TestBodyEv
FN:107,116,_ZN23SetTest_TestResize_TestIiE8TestBodyEv
FN:119,128,_ZN27SetTest_TestExceptions_TestINSt7__cxx1112basic_stringIcSt11char_traitsIcESaIcEEEE8TestBodyEv
FN:119,128,_ZN27SetTest_TestExceptions_TestIiE8TestBodyEv
FN:131,134,main
FN:15,15,_ZN7SetTestINSt7__cxx1112basic_stringIcSt11char_traitsIcESaIcEEEE5SetUpEv
FN:15,15,_ZN7SetTestIiE5SetUpEv
FN:17,17,_ZN7SetTestINSt7__cxx1112basic_stringIcSt11char_traitsIcESaIcEEEE8TearDownEv
FN:17,17,_ZN7SetTestIiE8TearDownEv
FN:25,37,_ZN28SetTest_TestEmplaceBack_TestINSt7__cxx1112basic_stringIcSt11char_traitsIcESaIcEEEE8TestBodyEv
FN:25,37,_ZN28SetTest_TestEmplaceBack_TestIiE8TestBodyEv
FN:40,54,_ZN22SetTest_TestErase_TestINSt7__cxx1112basic_stringIcSt11char_traitsIcESaIcEEEE8TestBodyEv
FN:40,54,_ZN22SetTest_TestErase_TestIiE8TestBodyEv
FN:57,71,_ZN29SetTest_TestEraseByValue_TestINSt7__cxx1112basic_stringIcSt11char_traitsIcESaIcEEEE8TestBodyEv
FN:57,71,_ZN29SetTest_TestEraseByValue_TestIiE8TestBodyEv
FN:74,84,_ZN24SetTest_TestReplace_TestINSt7__cxx1112basic_stringIcSt11char_traitsIcESaIcEEEE8TestBodyEv
FN:74,84,_ZN24SetTest_TestReplace_TestIiE8TestBodyEv
FN:87,91,_ZN24SetTest_TestGetSize_TestINSt7__cxx1112basic_stringIcSt11char_traitsIcESaIcEEEE8TestBodyEv
FN:87,91,_ZN24SetTest_TestGetSize_TestIiE8TestBodyEv
FN:94,104,_ZN25SetTest_TestContains_TestINSt7__cxx1112basic_stringIcSt11char_traitsIcESaIcEEEE8TestBodyEv
FN:94,104,_ZN25SetTest_TestContains_TestIiE8TestBodyEv
FNDA:3,_ZN23SetTest_TestResize_TestINSt7__cxx1112basic_stringIcSt11char_traitsIcESaIcEEEE8TestBodyEv
FNDA:3,_ZN23SetTest_TestResize_TestIiE8TestBodyEv
FNDA:3,_ZN27SetTest_TestExceptions_TestINSt7__cxx1112basic_stringIcSt11char_traitsIcESaIcEEEE8TestBodyEv
FNDA:3,_ZN27SetTest_TestExceptions_TestIiE8TestBodyEv
FNDA:3,main
FNDA:24,_ZN7SetTestINSt7__cxx1112basic_stringIcSt11char_traitsIcESaIcEEEE5SetUpEv
FNDA:24,_ZN7SetTestIiE5SetUpEv
FNDA:24,_ZN7SetTestINSt7__cxx1112basic_stringIcSt11char_traitsIcESaIcEEEE8TearDownEv
FNDA:24,_ZN7SetTestIiE8TearDownEv
FNDA:3,_ZN28SetTest_TestEmplaceBack_TestINSt7__cxx1112basic_stringIcSt11char_traitsIcESaIcEEEE8TestBodyEv
FNDA:3,_ZN28SetTest_TestEmplaceBack_TestIiE8TestBodyEv
FNDA:3,_ZN22SetTest_TestErase_TestINSt7__cxx1112basic_stringIcSt11char_traitsIcESaIcEEEE8TestBodyEv
FNDA:3,_ZN22SetTest_TestErase_TestIiE8TestBodyEv
FNDA:3,_ZN29SetTest_TestEraseByValue_TestINSt7__cxx1112basic_stringIcSt11char_traitsIcESaIcEEEE8TestBodyEv
FNDA:3,_ZN29SetTest_TestEraseByValue_TestIiE8TestBodyEv
FNDA:3,_ZN24SetTest_TestReplace_TestINSt7__cxx1112basic_stringIcSt11char_traitsIcESaIcEEEE8TestBodyEv
FNDA:3,_ZN24SetTest_TestReplace_TestIiE8TestBodyEv
FNDA:3,_ZN24SetTest_TestGetSize_TestINSt7__cxx1112basic_stringIcSt11char_traitsIcESaIcEEEE8TestBodyEv
FNDA:3,_ZN24SetTest_TestGetSize_TestIiE8TestBodyEv
FNDA:3,_ZN25SetTest_TestContains_TestINSt7__cxx1112basic_stringIcSt11char_traitsIcESaIcEEEE8TestBodyEv
FNDA:3,_ZN25SetTest_TestContains_TestIiE8TestBodyEv
FNF:21
FNH:21
DA:15,48
DA:17,48
DA:25,6
DA:27,3
DA:28,3
DA:29,3
DA:30,3
DA:32,6
DA:33,6
DA:34,3
DA:35,3
DA:37,6
DA:40,6
DA:42,3
DA:43,3
DA:44,3
DA:45,3
DA:46,3
DA:48,6
DA:49,6
DA:50,3
DA:51,3
DA:52,3
DA:54,6
DA:57,6
DA:59,3
DA:60,3
DA:61,3
DA:62,3
DA:63,3
DA:65,6
DA:66,6
DA:67,6
DA:68,3
DA:69,3
DA:71,6
DA:74,6
DA:76,3
DA:77,3
DA:78,3
DA:80,6
DA:81,6
DA:82,3
DA:84,6
DA:87,6
DA:88,6
DA:89,6
DA:90,6
DA:91,6
DA:94,6
DA:96,3
DA:97,3
DA:98,3
DA:100,6
DA:101,9
DA:102,9
DA:104,6
DA:107,6
DA:108,96
DA:110,45
DA:112,45
DA:115,6
DA:116,6
DA:119,6
DA:120,6
DA:121,9
DA:124,3
DA:126,3
DA:128,6
DA:131,3
DA:132,3
DA:133,3
LF:72
LH:72
end_of_record
TN:
SF:/home/vlad/vsCode/2_course/programming/labs/lab3/Test/StackTest.cpp
FN:133,147,_ZN26StackTest_TestGetSize_TestINSt7__cxx1112basic_stringIcSt11char_traitsIcESaIcEEEE8TestBodyEv
FN:133,147,_ZN26StackTest_TestGetSize_TestIiE8TestBodyEv
FN:17,17,_ZN9StackTestINSt7__cxx1112basic_stringIcSt11char_traitsIcESaIcEEEE5SetUpEv
FN:17,17,_ZN9StackTestIiE5SetUpEv
FN:18,18,_ZN9StackTestINSt7__cxx1112basic_stringIcSt11char_traitsIcESaIcEEEE8TearDownEv
FN:18,18,_ZN9StackTestIiE8TearDownEv
FN:26,38,_ZN23StackTest_TestPush_TestINSt7__cxx1112basic_stringIcSt11char_traitsIcESaIcEEEE8TestBodyEv
FN:26,38,_ZN23StackTest_TestPush_TestIiE8TestBodyEv
FN:41,56,_ZN22StackTest_TestPop_TestINSt7__cxx1112basic_stringIcSt11char_traitsIcESaIcEEEE8TestBodyEv
FN:41,56,_ZN22StackTest_TestPop_TestIiE8TestBodyEv
FN:59,78,_ZN24StackTest_TestPrint_TestINSt7__cxx1112basic_stringIcSt11char_traitsIcESaIcEEEE8TestBodyEv
FN:59,78,_ZN24StackTest_TestPrint_TestIiE8TestBodyEv
FN:81,93,_ZN31StackTest_TestFillFromFile_TestINSt7__cxx1112basic_stringIcSt11char_traitsIcESaIcEEEE8TestBodyEv
FN:81,93,_ZN31StackTest_TestFillFromFile_TestIiE8TestBodyEv
FN:96,130,_ZN38StackTest_TestWriteToFileWithType_TestINSt7__cxx1112basic_stringIcSt11char_traitsIcESaIcEEEE8TestBodyEv
FN:96,130,_ZN38StackTest_TestWriteToFileWithType_TestIiE8TestBodyEv
FNDA:3,_ZN26StackTest_TestGetSize_TestINSt7__cxx1112basic_stringIcSt11char_traitsIcESaIcEEEE8TestBodyEv
FNDA:3,_ZN26StackTest_TestGetSize_TestIiE8TestBodyEv
FNDA:18,_ZN9StackTestINSt7__cxx1112basic_stringIcSt11char_traitsIcESaIcEEEE5SetUpEv
FNDA:18,_ZN9StackTestIiE5SetUpEv
FNDA:18,_ZN9StackTestINSt7__cxx1112basic_stringIcSt11char_traitsIcESaIcEEEE8TearDownEv
FNDA:18,_ZN9StackTestIiE8TearDownEv
FNDA:3,_ZN23StackTest_TestPush_TestINSt7__cxx1112basic_stringIcSt11char_traitsIcESaIcEEEE8TestBodyEv
FNDA:3,_ZN23StackTest_TestPush_TestIiE8TestBodyEv
FNDA:3,_ZN22StackTest_TestPop_TestINSt7__cxx1112basic_stringIcSt11char_traitsIcESaIcEEEE8TestBodyEv
FNDA:3,_ZN22StackTest_TestPop_TestIiE8TestBodyEv
FNDA:3,_ZN24StackTest_TestPrint_TestINSt7__cxx1112basic_stringIcSt11char_traitsIcESaIcEEEE8TestBodyEv
FNDA:3,_ZN24StackTest_TestPrint_TestIiE8TestBodyEv
FNDA:3,_ZN31StackTest_TestFillFromFile_TestINSt7__cxx1112basic_stringIcSt11char_traitsIcESaIcEEEE8TestBodyEv
FNDA:3,_ZN31StackTest_TestFillFromFile_TestIiE8TestBodyEv
FNDA:3,_ZN38StackTest_TestWriteToFileWithType_TestINSt7__cxx1112basic_stringIcSt11char_traitsIcESaIcEEEE8TestBodyEv
FNDA:3,_ZN38StackTest_TestWriteToFileWithType_TestIiE8TestBodyEv
FNF:16
FNH:16
DA:17,36
DA:18,36
DA:26,6
DA:28,3
DA:29,3
DA:30,3
DA:31,3
DA:33,6
DA:34,6
DA:35,6
DA:36,3
DA:38,6
DA:41,6
DA:43,3
DA:44,3
DA:45,3
DA:46,3
DA:47,3
DA:50,6
DA:51,6
DA:52,6
DA:53,3
DA:54,3
DA:56,6
DA:59,6
DA:60,6
DA:63,3
DA:64,3
DA:65,3
DA:66,3
DA:67,3
DA:68,3
DA:69,3
DA:70,6
DA:71,6
DA:72,6
DA:73,3
DA:74,3
DA:75,3
DA:77,3
DA:78,6
DA:81,6
DA:83,6
DA:85,3
DA:88,9
DA:90,3
DA:93,6
DA:96,6
DA:97,6
DA:100,6
DA:103,3
DA:104,3
DA:105,3
DA:107,6
DA:108,6
DA:109,6
DA:113,12
DA:117,6
DA:119,6
DA:120,6
DA:122,3
DA:123,0
DA:125,3
DA:126,0
DA:129,6
DA:130,6
DA:133,6
DA:134,6
DA:137,3
DA:138,3
DA:139,3
DA:142,6
DA:143,6
DA:144,3
DA:147,6
LF:75
LH:73
end_of_record
TN:
SF:/home/vlad/vsCode/2_course/programming/labs/lab3/source/Array.cpp
FN:100,102,_ZNK5ArrayINSt7__cxx1112basic_stringIcSt11char_traitsIcESaIcEEEE7getSizeEv
FN:100,102,_ZNK5ArrayIiE7getSizeEv
FN:106,111,_ZNK5ArrayINSt7__cxx1112basic_stringIcSt11char_traitsIcESaIcEEEE5printEv
FN:106,111,_ZNK5ArrayIiE5printEv
FN:114,130,_ZNK5ArrayINSt7__cxx1112basic_stringIcSt11char_traitsIcESaIcEEEE11writeToFileERKS5_
FN:114,130,_ZNK5ArrayIiE11writeToFileERKNSt7__cxx1112basic_stringIcSt11char_traitsIcESaIcEEE
FN:133,147,_ZN5ArrayINSt7__cxx1112basic_stringIcSt11char_traitsIcESaIcEEEE12fillFromFileERKS5_
FN:133,147,_ZN5ArrayIiE12fillFromFileERKNSt7__cxx1112basic_stringIcSt11char_traitsIcESaIcEEE
FN:150,158,_ZN5ArrayINSt7__cxx1112basic_stringIcSt11char_traitsIcESaIcEEEE12eraseByValueERKS5_
FN:150,158,_ZN5ArrayIiE12eraseByValueERKi
FN:21,23,_ZN5ArrayINSt7__cxx1112basic_stringIcSt11char_traitsIcESaIcEEEED2Ev
FN:21,23,_ZN5ArrayIiED2Ev
FN:27,32,_ZN5ArrayINSt7__cxx1112basic_stringIcSt11char_traitsIcESaIcEEEEixEm
FN:27,32,_ZN5ArrayIiEixEm
FN:36,41,_ZN5ArrayINSt7__cxx1112basic_stringIcSt11char_traitsIcESaIcEEEE12emplace_backES5_
FN:36,41,_ZN5ArrayIiE12emplace_backEi
FN:45,56,_ZN5ArrayINSt7__cxx1112basic_stringIcSt11char_traitsIcESaIcEEEE6resizeEm
FN:45,56,_ZN5ArrayIiE6resizeEm
FN:6,8,_ZN5ArrayINSt7__cxx1112basic_stringIcSt11char_traitsIcESaIcEEEEC2Ev
FN:6,8,_ZN5ArrayIiEC2Ev
FN:60,74,_ZN5ArrayINSt7__cxx1112basic_stringIcSt11char_traitsIcESaIcEEEE6insertEmS5_
FN:60,74,_ZN5ArrayIiE6insertEmi
FN:78,87,_ZN5ArrayINSt7__cxx1112basic_stringIcSt11char_traitsIcESaIcEEEE5eraseEm
FN:78,87,_ZN5ArrayIiE5eraseEm
FN:91,96,_ZN5ArrayINSt7__cxx1112basic_stringIcSt11char_traitsIcESaIcEEEE7replaceEmS5_
FN:91,96,_ZN5ArrayIiE7replaceEmi
FNDA:64,_ZNK5ArrayINSt7__cxx1112basic_stringIcSt11char_traitsIcESaIcEEEE7getSizeEv
FNDA:64,_ZNK5ArrayIiE7getSizeEv
FNDA:16,_ZNK5ArrayINSt7__cxx1112basic_stringIcSt11char_traitsIcESaIcEEEE5printEv
FNDA:16,_ZNK5ArrayIiE5printEv
FNDA:16,_ZNK5ArrayINSt7__cxx1112basic_stringIcSt11char_traitsIcESaIcEEEE11writeToFileERKS5_
FNDA:16,_ZNK5ArrayIiE11writeToFileERKNSt7__cxx1112basic_stringIcSt11char_traitsIcESaIcEEE
FNDA:32,_ZN5ArrayINSt7__cxx1112basic_stringIcSt11char_traitsIcESaIcEEEE12fillFromFileERKS5_
FNDA:32,_ZN5ArrayIiE12fillFromFileERKNSt7__cxx1112basic_stringIcSt11char_traitsIcESaIcEEE
FNDA:16,_ZN5ArrayINSt7__cxx1112basic_stringIcSt11char_traitsIcESaIcEEEE12eraseByValueERKS5_
FNDA:16,_ZN5ArrayIiE12eraseByValueERKi
FNDA:192,_ZN5ArrayINSt7__cxx1112basic_stringIcSt11char_traitsIcESaIcEEEED2Ev
FNDA:192,_ZN5ArrayIiED2Ev
FNDA:128,_ZN5ArrayINSt7__cxx1112basic_stringIcSt11char_traitsIcESaIcEEEEixEm
FNDA:128,_ZN5ArrayIiEixEm
FNDA:608,_ZN5ArrayINSt7__cxx1112basic_stringIcSt11char_traitsIcESaIcEEEE12emplace_backES5_
FNDA:608,_ZN5ArrayIiE12emplace_backEi
FNDA:16,_ZN5ArrayINSt7__cxx1112basic_stringIcSt11char_traitsIcESaIcEEEE6resizeEm
FNDA:16,_ZN5ArrayIiE6resizeEm
FNDA:192,_ZN5ArrayINSt7__cxx1112basic_stringIcSt11char_traitsIcESaIcEEEEC2Ev
FNDA:192,_ZN5ArrayIiEC2Ev
FNDA:48,_ZN5ArrayINSt7__cxx1112basic_stringIcSt11char_traitsIcESaIcEEEE6insertEmS5_
FNDA:48,_ZN5ArrayIiE6insertEmi
FNDA:48,_ZN5ArrayINSt7__cxx1112basic_stringIcSt11char_traitsIcESaIcEEEE5eraseEm
FNDA:48,_ZN5ArrayIiE5eraseEm
FNDA:32,_ZN5ArrayINSt7__cxx1112basic_stringIcSt11char_traitsIcESaIcEEEE7replaceEmS5_
FNDA:32,_ZN5ArrayIiE7replaceEmi
FNF:26
FNH:26
DA:6,384
DA:7,2304
DA:8,384
DA:21,384
DA:23,384
DA:27,256
DA:28,256
DA:29,32
DA:31,224
DA:36,1216
DA:37,1216
DA:38,32
DA:40,1216
DA:41,1216
DA:45,32
DA:46,32
DA:47,0
DA:49,352
DA:50,352
DA:51,320
DA:53,192
DA:54,32
DA:55,32
DA:56,32
DA:60,96
DA:61,96
DA:62,32
DA:65,64
DA:66,0
DA:69,96
DA:70,32
DA:72,64
DA:73,64
DA:74,64
DA:78,96
DA:79,96
DA:80,32
DA:83,128
DA:84,64
DA:86,64
DA:87,64
DA:91,64
DA:92,64
DA:93,32
DA:95,32
DA:96,32
DA:100,128
DA:101,128
DA:106,32
DA:107,128
DA:108,96
DA:110,32
DA:111,32
DA:114,32
DA:115,32
DA:116,32
DA:117,0
DA:118,0
DA:121,192
DA:122,160
DA:123,160
DA:124,128
DA:128,32
DA:129,32
DA:130,32
DA:133,64
DA:134,64
DA:135,64
DA:136,0
DA:137,0
DA:140,32
DA:141,384
DA:142,320
DA:145,64
DA:146,64
DA:147,64
DA:150,32
DA:151,32
DA:152,32
DA:153,32
DA:154,32
DA:157,0
LF:82
LH:75
end_of_record
TN:
SF:/home/vlad/vsCode/2_course/programming/labs/lab3/source/DList.cpp
FN:11,15,_ZN5DListINSt7__cxx1112basic_stringIcSt11char_traitsIcESaIcEEEED2Ev
FN:11,15,_ZN5DListIiED2Ev
FN:125,146,_ZN5DListINSt7__cxx1112basic_stringIcSt11char_traitsIcESaIcEEEE15search_by_valueES5_
FN:125,146,_ZN5DListIiE15search_by_valueEi
FN:149,167,_ZN5DListINSt7__cxx1112basic_stringIcSt11char_traitsIcESaIcEEEEixEm
FN:149,167,_ZN5DListIiEixEm
FN:170,177,_ZN5DListINSt7__cxx1112basic_stringIcSt11char_traitsIcESaIcEEEE5printEv
FN:170,177,_ZN5DListIiE5printEv
FN:18,20,_ZN5DListINSt7__cxx1112basic_stringIcSt11char_traitsIcESaIcEEEE7GetSizeEv
FN:18,20,_ZN5DListIiE7GetSizeEv
FN:180,193,_ZN5DListINSt7__cxx1112basic_stringIcSt11char_traitsIcESaIcEEEE12fillFromFileERKS5_
FN:180,193,_ZN5DListIiE12fillFromFileERKNSt7__cxx1112basic_stringIcSt11char_traitsIcESaIcEEE
FN:196,209,_ZNK5DListINSt7__cxx1112basic_stringIcSt11char_traitsIcESaIcEEEE11writeToFileERKS5_
FN:196,209,_ZNK5DListIiE11writeToFileERKNSt7__cxx1112basic_stringIcSt11char_traitsIcESaIcEEE
FN:23,34,_ZN5DListINSt7__cxx1112basic_stringIcSt11char_traitsIcESaIcEEEE9push_backES5_
FN:23,34,_ZN5DListIiE9push_backEi
FN:37,48,_ZN5DListINSt7__cxx1112basic_stringIcSt11char_traitsIcESaIcEEEE10push_frontES5_
FN:37,48,_ZN5DListIiE10push_frontEi
FN:51,65,_ZN5DListINSt7__cxx1112basic_stringIcSt11char_traitsIcESaIcEEEE9pop_frontEv
FN:51,65,_ZN5DListIiE9pop_frontEv
FN:68,82,_ZN5DListINSt7__cxx1112basic_stringIcSt11char_traitsIcESaIcEEEE8pop_backEv
FN:68,82,_ZN5DListIiE8pop_backEv
FN:8,8,_ZN5DListINSt7__cxx1112basic_stringIcSt11char_traitsIcESaIcEEEEC2Ev
FN:8,8,_ZN5DListIiEC2Ev
FN:85,122,_ZN5DListINSt7__cxx1112basic_stringIcSt11char_traitsIcESaIcEEEE9pop_valueES5_
FN:85,122,_ZN5DListIiE9pop_valueEi
FNDA:132,_ZN5DListINSt7__cxx1112basic_stringIcSt11char_traitsIcESaIcEEEED2Ev
FNDA:132,_ZN5DListIiED2Ev
FNDA:11,_ZN5DListINSt7__cxx1112basic_stringIcSt11char_traitsIcESaIcEEEE15search_by_valueES5_
FNDA:11,_ZN5DListIiE15search_by_valueEi
FNDA:121,_ZN5DListINSt7__cxx1112basic_stringIcSt11char_traitsIcESaIcEEEEixEm
FNDA:121,_ZN5DListIiEixEm
FNDA:11,_ZN5DListINSt7__cxx1112basic_stringIcSt11char_traitsIcESaIcEEEE5printEv
FNDA:11,_ZN5DListIiE5printEv
FNDA:22,_ZN5DListINSt7__cxx1112basic_stringIcSt11char_traitsIcESaIcEEEE7GetSizeEv
FNDA:22,_ZN5DListIiE7GetSizeEv
FNDA:22,_ZN5DListINSt7__cxx1112basic_stringIcSt11char_traitsIcESaIcEEEE12fillFromFileERKS5_
FNDA:22,_ZN5DListIiE12fillFromFileERKNSt7__cxx1112basic_stringIcSt11char_traitsIcESaIcEEE
FNDA:11,_ZNK5DListINSt7__cxx1112basic_stringIcSt11char_traitsIcESaIcEEEE11writeToFileERKS5_
FNDA:11,_ZNK5DListIiE11writeToFileERKNSt7__cxx1112basic_stringIcSt11char_traitsIcESaIcEEE
FNDA:297,_ZN5DListINSt7__cxx1112basic_stringIcSt11char_traitsIcESaIcEEEE9push_backES5_
FNDA:297,_ZN5DListIiE9push_backEi
FNDA:22,_ZN5DListINSt7__cxx1112basic_stringIcSt11char_traitsIcESaIcEEEE10push_frontES5_
FNDA:22,_ZN5DListIiE10push_frontEi
FNDA:297,_ZN5DListINSt7__cxx1112basic_stringIcSt11char_traitsIcESaIcEEEE9pop_frontEv
FNDA:297,_ZN5DListIiE9pop_frontEv
FNDA:22,_ZN5DListINSt7__cxx1112basic_stringIcSt11char_traitsIcESaIcEEEE8pop_backEv
FNDA:22,_ZN5DListIiE8pop_backEv
FNDA:132,_ZN5DListINSt7__cxx1112basic_stringIcSt11char_traitsIcESaIcEEEEC2Ev
FNDA:132,_ZN5DListIiEC2Ev
FNDA:22,_ZN5DListINSt7__cxx1112basic_stringIcSt11char_traitsIcESaIcEEEE9pop_valueES5_
FNDA:22,_ZN5DListIiE9pop_valueEi
FNF:26
FNH:26
DA:8,264
DA:11,264
DA:12,814
DA:13,550
DA:15,264
DA:18,44
DA:19,44
DA:23,594
DA:24,594
DA:25,594
DA:26,220
DA:27,220
DA:29,374
DA:30,374
DA:31,374
DA:33,594
DA:34,594
DA:37,44
DA:38,44
DA:39,44
DA:40,22
DA:41,22
DA:43,22
DA:44,22
DA:45,22
DA:47,44
DA:48,44
DA:51,594
DA:52,594
DA:53,22
DA:56,572
DA:57,572
DA:58,572
DA:59,330
DA:61,242
DA:63,572
DA:64,572
DA:65,572
DA:68,44
DA:69,44
DA:70,22
DA:73,22
DA:74,22
DA:75,22
DA:76,22
DA:78,0
DA:80,22
DA:81,22
DA:82,22
DA:85,44
DA:86,44
DA:87,22
DA:90,44
DA:91,22
DA:92,22
DA:93,22
DA:94,22
DA:96,0
DA:98,22
DA:99,22
DA:102,22
DA:103,66
DA:104,44
DA:105,22
DA:106,22
DA:107,22
DA:109,22
DA:110,0
DA:112,22
DA:113,22
DA:115,22
DA:116,22
DA:117,22
DA:119,22
DA:122,22
DA:125,22
DA:126,22
DA:127,22
DA:128,22
DA:130,22
DA:132,66
DA:133,44
DA:134,22
DA:135,22
DA:137,44
DA:138,44
DA:141,22
DA:142,0
DA:145,22
DA:146,22
DA:149,242
DA:150,242
DA:151,44
DA:154,198
DA:155,198
DA:157,286
DA:158,286
DA:159,198
DA:161,88
DA:162,88
DA:166,0
DA:170,22
DA:171,22
DA:172,88
DA:173,66
DA:174,66
DA:176,22
DA:177,22
DA:180,44
DA:181,44
DA:182,44
DA:183,0
DA:184,0
DA:187,22
DA:188,220
DA:189,176
DA:192,44
DA:193,44
DA:196,22
DA:197,22
DA:198,22
DA:199,0
DA:202,22
DA:203,88
DA:204,66
DA:205,66
DA:208,22
DA:209,22
LF:128
LH:120
end_of_record
TN:
SF:/home/vlad/vsCode/2_course/programming/labs/lab3/source/OList.cpp
FN:102,123,_ZN5OListINSt7__cxx1112basic_stringIcSt11char_traitsIcESaIcEEEE15search_by_valueES5_
FN:102,123,_ZN5OListIiE15search_by_valueEi
FN:11,15,_ZN5OListINSt7__cxx1112basic_stringIcSt11char_traitsIcESaIcEEEED2Ev
FN:11,15,_ZN5OListIiED2Ev
FN:126,144,_ZN5OListINSt7__cxx1112basic_stringIcSt11char_traitsIcESaIcEEEEixEm
FN:126,144,_ZN5OListIiEixEm
FN:147,154,_ZN5OListINSt7__cxx1112basic_stringIcSt11char_traitsIcESaIcEEEE5printEv
FN:147,154,_ZN5OListIiE5printEv
FN:157,170,_ZN5OListINSt7__cxx1112basic_stringIcSt11char_traitsIcESaIcEEEE12fillFromFileERKS5_
FN:157,170,_ZN5OListIiE12fillFromFileERKNSt7__cxx1112basic_stringIcSt11char_traitsIcESaIcEEE
FN:173,185,_ZNK5OListINSt7__cxx1112basic_stringIcSt11char_traitsIcESaIcEEEE11writeToFileERKS5_
FN:173,185,_ZNK5OListIiE11writeToFileERKNSt7__cxx1112basic_stringIcSt11char_traitsIcESaIcEEE
FN:18,20,_ZN5OListINSt7__cxx1112basic_stringIcSt11char_traitsIcESaIcEEEE7GetSizeEv
FN:18,20,_ZN5OListIiE7GetSizeEv
FN:23,34,_ZN5OListINSt7__cxx1112basic_stringIcSt11char_traitsIcESaIcEEEE9push_backES5_
FN:23,34,_ZN5OListIiE9push_backEi
FN:37,41,_ZN5OListINSt7__cxx1112basic_stringIcSt11char_traitsIcESaIcEEEE10push_frontES5_
FN:37,41,_ZN5OListIiE10push_frontEi
FN:44,53,_ZN5OListINSt7__cxx1112basic_stringIcSt11char_traitsIcESaIcEEEE9pop_frontEv
FN:44,53,_ZN5OListIiE9pop_frontEv
FN:56,73,_ZN5OListINSt7__cxx1112basic_stringIcSt11char_traitsIcESaIcEEEE8pop_backEv
FN:56,73,_ZN5OListIiE8pop_backEv
FN:76,99,_ZN5OListINSt7__cxx1112basic_stringIcSt11char_traitsIcESaIcEEEE9pop_valueES5_
FN:76,99,_ZN5OListIiE9pop_valueEi
FN:8,8,_ZN5OListINSt7__cxx1112basic_stringIcSt11char_traitsIcESaIcEEEEC2Ev
FN:8,8,_ZN5OListIiEC2Ev
FNDA:7,_ZN5OListINSt7__cxx1112basic_stringIcSt11char_traitsIcESaIcEEEE15search_by_valueES5_
FNDA:7,_ZN5OListIiE15search_by_valueEi
FNDA:84,_ZN5OListINSt7__cxx1112basic_stringIcSt11char_traitsIcESaIcEEEED2Ev
FNDA:84,_ZN5OListIiED2Ev
FNDA:84,_ZN5OListINSt7__cxx1112basic_stringIcSt11char_traitsIcESaIcEEEEixEm
FNDA:84,_ZN5OListIiEixEm
FNDA:7,_ZN5OListINSt7__cxx1112basic_stringIcSt11char_traitsIcESaIcEEEE5printEv
FNDA:7,_ZN5OListIiE5printEv
FNDA:7,_ZN5OListINSt7__cxx1112basic_stringIcSt11char_traitsIcESaIcEEEE12fillFromFileERKS5_
FNDA:7,_ZN5OListIiE12fillFromFileERKNSt7__cxx1112basic_stringIcSt11char_traitsIcESaIcEEE
FNDA:7,_ZNK5OListINSt7__cxx1112basic_stringIcSt11char_traitsIcESaIcEEEE11writeToFileERKS5_
FNDA:7,_ZNK5OListIiE11writeToFileERKNSt7__cxx1112basic_stringIcSt11char_traitsIcESaIcEEE
FNDA:7,_ZN5OListINSt7__cxx1112basic_stringIcSt11char_traitsIcESaIcEEEE7GetSizeEv
FNDA:7,_ZN5OListIiE7GetSizeEv
FNDA:161,_ZN5OListINSt7__cxx1112basic_stringIcSt11char_traitsIcESaIcEEEE9push_backES5_
FNDA:161,_ZN5OListIiE9push_backEi
FNDA:14,_ZN5OListINSt7__cxx1112basic_stringIcSt11char_traitsIcESaIcEEEE10push_frontES5_
FNDA:14,_ZN5OListIiE10push_frontEi
FNDA:161,_ZN5OListINSt7__cxx1112basic_stringIcSt11char_traitsIcESaIcEEEE9pop_frontEv
FNDA:161,_ZN5OListIiE9pop_frontEv
FNDA:14,_ZN5OListINSt7__cxx1112basic_stringIcSt11char_traitsIcESaIcEEEE8pop_backEv
FNDA:14,_ZN5OListIiE8pop_backEv
FNDA:7,_ZN5OListINSt7__cxx1112basic_stringIcSt11char_traitsIcESaIcEEEE9pop_valueES5_
FNDA:7,_ZN5OListIiE9pop_valueEi
FNDA:84,_ZN5OListINSt7__cxx1112basic_stringIcSt11char_traitsIcESaIcEEEEC2Ev
FNDA:84,_ZN5OListIiEC2Ev
FNF:26
FNH:26
DA:8,168
DA:11,168
DA:12,462
DA:13,294
DA:15,168
DA:18,14
DA:19,14
DA:23,322
DA:24,322
DA:25,126
DA:27,196
DA:28,308
DA:29,112
DA:31,196
DA:33,322
DA:34,322
DA:37,28
DA:38,28
DA:39,28
DA:40,28
DA:41,28
DA:44,322
DA:45,322
DA:46,14
DA:49,308
DA:50,308
DA:51,308
DA:52,308
DA:53,308
DA:56,28
DA:57,28
DA:58,14
DA:61,14
DA:62,0
DA:63,0
DA:65,14
DA:66,14
DA:67,0
DA:69,14
DA:70,14
DA:72,14
DA:73,14
DA:76,14
DA:77,14
DA:78,0
DA:81,28
DA:82,14
DA:83,14
DA:84,14
DA:85,14
DA:88,14
DA:89,28
DA:90,14
DA:91,14
DA:92,14
DA:93,14
DA:94,14
DA:96,0
DA:99,14
DA:102,14
DA:103,14
DA:104,14
DA:105,14
DA:107,14
DA:109,42
DA:110,28
DA:111,14
DA:112,14
DA:114,28
DA:115,28
DA:118,14
DA:119,0
DA:122,14
DA:123,14
DA:126,168
DA:127,168
DA:128,28
DA:131,140
DA:132,140
DA:134,182
DA:135,182
DA:136,140
DA:138,42
DA:139,42
DA:143,0
DA:147,14
DA:148,14
DA:149,56
DA:150,42
DA:151,42
DA:153,14
DA:154,14
DA:157,14
DA:158,14
DA:159,14
DA:160,0
DA:161,0
DA:164,7
DA:165,84
DA:166,70
DA:169,14
DA:170,14
DA:173,14
DA:174,14
DA:175,14
DA:176,0
DA:177,0
DA:180,14
DA:181,42
DA:182,28
DA:183,28
DA:185,14
LF:112
LH:101
end_of_record
TN:
SF:/home/vlad/vsCode/2_course/programming/labs/lab3/source/binaryTree.cpp
FN:15,17,_ZN10BinaryTreeINSt7__cxx1112basic_stringIcSt11char_traitsIcESaIcEEEE6insertES5_
FN:15,17,_ZN10BinaryTreeIiE6insertEi
FN:20,28,_ZN10BinaryTreeINSt7__cxx1112basic_stringIcSt11char_traitsIcESaIcEEEE6insertERPNS6_4NodeES5_
FN:20,28,_ZN10BinaryTreeIiE6insertERPNS0_4NodeEi
FN:32,34,_ZNK10BinaryTreeINSt7__cxx1112basic_stringIcSt11char_traitsIcESaIcEEEE6searchES5_
FN:32,34,_ZNK10BinaryTreeIiE6searchEi
FN:37,42,_ZNK10BinaryTreeINSt7__cxx1112basic_stringIcSt11char_traitsIcESaIcEEEE6searchEPNS6_4NodeES5_
FN:37,42,_ZNK10BinaryTreeIiE6searchEPNS0_4NodeEi
FN:46,48,_ZNK10BinaryTreeINSt7__cxx1112basic_stringIcSt11char_traitsIcESaIcEEEE7inorderEv
FN:46,48,_ZNK10BinaryTreeIiE7inorderEv
FN:5,5,_ZN10BinaryTreeINSt7__cxx1112basic_stringIcSt11char_traitsIcESaIcEEEEC2Ev
FN:5,5,_ZN10BinaryTreeIiEC2Ev
FN:51,57,_ZNK10BinaryTreeINSt7__cxx1112basic_stringIcSt11char_traitsIcESaIcEEEE7inorderEPNS6_4NodeE
FN:51,57,_ZNK10BinaryTreeIiE7inorderEPNS0_4NodeE
FN:61,67,_ZN10BinaryTreeINSt7__cxx1112basic_stringIcSt11char_traitsIcESaIcEEEE5clearEPNS6_4NodeE
FN:61,67,_ZN10BinaryTreeIiE5clearEPNS0_4NodeE
FN:71,74,_ZNK10BinaryTreeINSt7__cxx1112basic_stringIcSt11char_traitsIcESaIcEEEE6heightEPNS6_4NodeE
FN:71,74,_ZNK10BinaryTreeIiE6heightEPNS0_4NodeE
FN:78,86,_ZNK10BinaryTreeINSt7__cxx1112basic_stringIcSt11char_traitsIcESaIcEEEE10isBalancedEPNS6_4NodeE
FN:78,86,_ZNK10BinaryTreeIiE10isBalancedEPNS0_4NodeE
FN:9,11,_ZN10BinaryTreeINSt7__cxx1112basic_stringIcSt11char_traitsIcESaIcEEEED2Ev
FN:9,11,_ZN10BinaryTreeIiED2Ev
FN:90,92,_ZNK10BinaryTreeINSt7__cxx1112basic_stringIcSt11char_traitsIcESaIcEEEE10isBalancedEv
FN:90,92,_ZNK10BinaryTreeIiE10isBalancedEv
FNDA:140,_ZN10BinaryTreeINSt7__cxx1112basic_stringIcSt11char_traitsIcESaIcEEEE6insertES5_
FNDA:266,_ZN10BinaryTreeIiE6insertEi
FNDA:238,_ZN10BinaryTreeINSt7__cxx1112basic_stringIcSt11char_traitsIcESaIcEEEE6insertERPNS6_4NodeES5_
FNDA:588,_ZN10BinaryTreeIiE6insertERPNS0_4NodeEi
FNDA:70,_ZNK10BinaryTreeINSt7__cxx1112basic_stringIcSt11char_traitsIcESaIcEEEE6searchES5_
FNDA:70,_ZNK10BinaryTreeIiE6searchEi
FNDA:154,_ZNK10BinaryTreeINSt7__cxx1112basic_stringIcSt11char_traitsIcESaIcEEEE6searchEPNS6_4NodeES5_
FNDA:140,_ZNK10BinaryTreeIiE6searchEPNS0_4NodeEi
FNDA:14,_ZNK10BinaryTreeINSt7__cxx1112basic_stringIcSt11char_traitsIcESaIcEEEE7inorderEv
FNDA:14,_ZNK10BinaryTreeIiE7inorderEv
FNDA:56,_ZN10BinaryTreeINSt7__cxx1112basic_stringIcSt11char_traitsIcESaIcEEEEC2Ev
FNDA:56,_ZN10BinaryTreeIiEC2Ev
FNDA:98,_ZNK10BinaryTreeINSt7__cxx1112basic_stringIcSt11char_traitsIcESaIcEEEE7inorderEPNS6_4NodeE
FNDA:210,_ZNK10BinaryTreeIiE7inorderEPNS0_4NodeE
FNDA:336,_ZN10BinaryTreeINSt7__cxx1112basic_stringIcSt11char_traitsIcESaIcEEEE5clearEPNS6_4NodeE
FNDA:588,_ZN10BinaryTreeIiE5clearEPNS0_4NodeE
FNDA:84,_ZNK10BinaryTreeINSt7__cxx1112basic_stringIcSt11char_traitsIcESaIcEEEE6heightEPNS6_4NodeE
FNDA:280,_ZNK10BinaryTreeIiE6heightEPNS0_4NodeE
FNDA:70,_ZNK10BinaryTreeINSt7__cxx1112basic_stringIcSt11char_traitsIcESaIcEEEE10isBalancedEPNS6_4NodeE
FNDA:112,_ZNK10BinaryTreeIiE10isBalancedEPNS0_4NodeE
FNDA:56,_ZN10BinaryTreeINSt7__cxx1112basic_stringIcSt11char_traitsIcESaIcEEEED2Ev
FNDA:56,_ZN10BinaryTreeIiED2Ev
FNDA:14,_ZNK10BinaryTreeINSt7__cxx1112basic_stringIcSt11char_traitsIcESaIcEEEE10isBalancedEv
FNDA:28,_ZNK10BinaryTreeIiE10isBalancedEv
FNF:24
FNH:24
DA:5,112
DA:9,112
DA:10,112
DA:11,112
DA:15,406
DA:16,406
DA:17,406
DA:20,826
DA:21,826
DA:22,406
DA:23,420
DA:24,210
DA:26,210
DA:28,826
DA:32,140
DA:33,140
DA:37,294
DA:38,294
DA:39,238
DA:40,154
DA:41,154
DA:46,28
DA:47,28
DA:48,28
DA:51,308
DA:52,308
DA:53,140
DA:54,140
DA:55,140
DA:57,308
DA:61,924
DA:62,924
DA:63,406
DA:64,406
DA:65,406
DA:67,924
DA:71,364
DA:72,364
DA:73,98
DA:78,182
DA:79,182
DA:81,84
DA:82,84
DA:84,154
DA:85,154
DA:90,42
DA:91,42
LF:47
LH:47
end_of_record
TN:
SF:/home/vlad/vsCode/2_course/programming/labs/lab3/source/queue.cpp
FN:11,15,_ZN5QueueINSt7__cxx1112basic_stringIcSt11char_traitsIcESaIcEEEED2Ev
FN:11,15,_ZN5QueueIiED2Ev
FN:18,20,_ZN5QueueINSt7__cxx1112basic_stringIcSt11char_traitsIcESaIcEEEE7GetSizeEv
FN:18,20,_ZN5QueueIiE7GetSizeEv
FN:23,34,_ZN5QueueINSt7__cxx1112basic_stringIcSt11char_traitsIcESaIcEEEE4pushES5_
FN:23,34,_ZN5QueueIiE4pushEi
FN:37,50,_ZN5QueueINSt7__cxx1112basic_stringIcSt11char_traitsIcESaIcEEEE3popEv
FN:37,50,_ZN5QueueIiE3popEv
FN:53,60,_ZN5QueueINSt7__cxx1112basic_stringIcSt11char_traitsIcESaIcEEEE5printEv
FN:53,60,_ZN5QueueIiE5printEv
FN:63,76,_ZN5QueueINSt7__cxx1112basic_stringIcSt11char_traitsIcESaIcEEEE12fillFromFileERKS5_
FN:63,76,_ZN5QueueIiE12fillFromFileERKNSt7__cxx1112basic_stringIcSt11char_traitsIcESaIcEEE
FN:79,92,_ZNK5QueueINSt7__cxx1112basic_stringIcSt11char_traitsIcESaIcEEEE11writeToFileERKS5_
FN:79,92,_ZNK5QueueIiE11writeToFileERKNSt7__cxx1112basic_stringIcSt11char_traitsIcESaIcEEE
FN:8,8,_ZN5QueueINSt7__cxx1112basic_stringIcSt11char_traitsIcESaIcEEEEC2Ev
FN:8,8,_ZN5QueueIiEC2Ev
FNDA:48,_ZN5QueueINSt7__cxx1112basic_stringIcSt11char_traitsIcESaIcEEEED2Ev
FNDA:48,_ZN5QueueIiED2Ev
FNDA:40,_ZN5QueueINSt7__cxx1112basic_stringIcSt11char_traitsIcESaIcEEEE7GetSizeEv
FNDA:40,_ZN5QueueIiE7GetSizeEv
FNDA:150,_ZN5QueueINSt7__cxx1112basic_stringIcSt11char_traitsIcESaIcEEEE4pushES5_
FNDA:147,_ZN5QueueIiE4pushEi
FNDA:150,_ZN5QueueINSt7__cxx1112basic_stringIcSt11char_traitsIcESaIcEEEE3popEv
FNDA:147,_ZN5QueueIiE3popEv
FNDA:8,_ZN5QueueINSt7__cxx1112basic_stringIcSt11char_traitsIcESaIcEEEE5printEv
FNDA:8,_ZN5QueueIiE5printEv
FNDA:8,_ZN5QueueINSt7__cxx1112basic_stringIcSt11char_traitsIcESaIcEEEE12fillFromFileERKS5_
FNDA:8,_ZN5QueueIiE12fillFromFileERKNSt7__cxx1112basic_stringIcSt11char_traitsIcESaIcEEE
FNDA:8,_ZNK5QueueINSt7__cxx1112basic_stringIcSt11char_traitsIcESaIcEEEE11writeToFileERKS5_
FNDA:8,_ZNK5QueueIiE11writeToFileERKNSt7__cxx1112basic_stringIcSt11char_traitsIcESaIcEEE
FNDA:48,_ZN5QueueINSt7__cxx1112basic_stringIcSt11char_traitsIcESaIcEEEEC2Ev
FNDA:48,_ZN5QueueIiEC2Ev
FNF:16
FNH:16
DA:8,96
DA:11,96
DA:12,377
DA:13,281
DA:15,96
DA:18,80
DA:19,80
DA:23,297
DA:24,297
DA:25,95
DA:27,202
DA:28,351
DA:29,149
DA:31,202
DA:33,297
DA:34,297
DA:37,297
DA:38,297
DA:39,0
DA:42,297
DA:43,297
DA:44,297
DA:45,297
DA:47,297
DA:48,95
DA:50,297
DA:53,16
DA:54,16
DA:55,64
DA:56,48
DA:57,48
DA:59,16
DA:60,16
DA:63,16
DA:64,16
DA:65,16
DA:66,0
DA:67,0
DA:70,8
DA:71,89
DA:72,73
DA:75,16
DA:76,16
DA:79,16
DA:80,16
DA:81,16
DA:82,0
DA:85,16
DA:86,64
DA:87,48
DA:88,48
DA:91,16
DA:92,16
LF:53
LH:49
end_of_record
TN:
SF:/home/vlad/vsCode/2_course/programming/labs/lab3/source/set.cpp
FN:100,108,_ZN3SetINSt7__cxx1112basic_stringIcSt11char_traitsIcESaIcEEEE12eraseByValueERKS5_
FN:100,108,_ZN3SetIiE12eraseByValueERKi
FN:111,118,_ZNK3SetINSt7__cxx1112basic_stringIcSt11char_traitsIcESaIcEEEE8containsERKS5_
FN:111,118,_ZNK3SetIiE8containsERKi
FN:21,23,_ZN3SetINSt7__cxx1112basic_stringIcSt11char_traitsIcESaIcEEEED2Ev
FN:21,23,_ZN3SetIiED2Ev
FN:27,32,_ZN3SetINSt7__cxx1112basic_stringIcSt11char_traitsIcESaIcEEEEixEm
FN:27,32,_ZN3SetIiEixEm
FN:35,45,_ZN3SetINSt7__cxx1112basic_stringIcSt11char_traitsIcESaIcEEEE12emplace_backES5_
FN:35,45,_ZN3SetIiE12emplace_backEi
FN:49,60,_ZN3SetINSt7__cxx1112basic_stringIcSt11char_traitsIcESaIcEEEE6resizeEm
FN:49,60,_ZN3SetIiE6resizeEm
FN:6,8,_ZN3SetINSt7__cxx1112basic_stringIcSt11char_traitsIcESaIcEEEEC2Ev
FN:6,8,_ZN3SetIiEC2Ev
FN:64,73,_ZN3SetINSt7__cxx1112basic_stringIcSt11char_traitsIcESaIcEEEE5eraseEm
FN:64,73,_ZN3SetIiE5eraseEm
FN:77,82,_ZN3SetINSt7__cxx1112basic_stringIcSt11char_traitsIcESaIcEEEE7replaceEmS5_
FN:77,82,_ZN3SetIiE7replaceEmi
FN:86,88,_ZNK3SetINSt7__cxx1112basic_stringIcSt11char_traitsIcESaIcEEEE7getSizeEv
FN:86,88,_ZNK3SetIiE7getSizeEv
FNDA:3,_ZN3SetINSt7__cxx1112basic_stringIcSt11char_traitsIcESaIcEEEE12eraseByValueERKS5_
FNDA:3,_ZN3SetIiE12eraseByValueERKi
FNDA:78,_ZNK3SetINSt7__cxx1112basic_stringIcSt11char_traitsIcESaIcEEEE8containsERKS5_
FNDA:78,_ZNK3SetIiE8containsERKi
FNDA:24,_ZN3SetINSt7__cxx1112basic_stringIcSt11char_traitsIcESaIcEEEED2Ev
FNDA:24,_ZN3SetIiED2Ev
FNDA:15,_ZN3SetINSt7__cxx1112basic_stringIcSt11char_traitsIcESaIcEEEEixEm
FNDA:15,_ZN3SetIiEixEm
FNDA:72,_ZN3SetINSt7__cxx1112basic_stringIcSt11char_traitsIcESaIcEEEE12emplace_backES5_
FNDA:72,_ZN3SetIiE12emplace_backEi
FNDA:3,_ZN3SetINSt7__cxx1112basic_stringIcSt11char_traitsIcESaIcEEEE6resizeEm
FNDA:3,_ZN3SetIiE6resizeEm
FNDA:24,_ZN3SetINSt7__cxx1112basic_stringIcSt11char_traitsIcESaIcEEEEC2Ev
FNDA:24,_ZN3SetIiEC2Ev
FNDA:9,_ZN3SetINSt7__cxx1112basic_stringIcSt11char_traitsIcESaIcEEEE5eraseEm
FNDA:9,_ZN3SetIiE5eraseEm
FNDA:6,_ZN3SetINSt7__cxx1112basic_stringIcSt11char_traitsIcESaIcEEEE7replaceEmS5_
FNDA:6,_ZN3SetIiE7replaceEmi
FNDA:18,_ZNK3SetINSt7__cxx1112basic_stringIcSt11char_traitsIcESaIcEEEE7getSizeEv
FNDA:18,_ZNK3SetIiE7getSizeEv
FNF:20
FNH:20
DA:6,48
DA:7,288
DA:8,48
DA:21,48
DA:22,318
DA:23,48
DA:27,30
DA:28,30
DA:29,6
DA:31,24
DA:35,144
DA:36,144
DA:37,0
DA:40,144
DA:41,6
DA:44,144
DA:49,6
DA:50,6
DA:51,0
DA:53,66
DA:54,66
DA:55,60
DA:57,36
DA:58,6
DA:59,6
DA:60,6
DA:64,18
DA:65,18
DA:66,6
DA:69,24
DA:70,12
DA:72,12
DA:73,12
DA:77,12
DA:78,12
DA:79,6
DA:81,6
DA:82,6
DA:86,36
DA:87,36
DA:100,6
DA:101,6
DA:102,6
DA:103,6
DA:104,6
DA:107,0
DA:111,156
DA:112,810
DA:113,660
DA:114,6
DA:117,150
LF:51
LH:48
end_of_record
TN:
SF:/home/vlad/vsCode/2_course/programming/labs/lab3/source/stack.cpp
FN:14,16,_ZN5StackINSt7__cxx1112basic_stringIcSt11char_traitsIcESaIcEEEE7GetSizeEv
FN:14,16,_ZN5StackIiE7GetSizeEv
FN:19,30,_ZN5StackINSt7__cxx1112basic_stringIcSt11char_traitsIcESaIcEEEE4pushES5_
FN:19,30,_ZN5StackIiE4pushEi
FN:33,50,_ZN5StackINSt7__cxx1112basic_stringIcSt11char_traitsIcESaIcEEEE3popEv
FN:33,50,_ZN5StackIiE3popEv
FN:4,4,_ZN5StackINSt7__cxx1112basic_stringIcSt11char_traitsIcESaIcEEEEC2Ev
FN:4,4,_ZN5StackIiEC2Ev
FN:53,60,_ZN5StackINSt7__cxx1112basic_stringIcSt11char_traitsIcESaIcEEEE5printEv
FN:53,60,_ZN5StackIiE5printEv
FN:63,76,_ZN5StackINSt7__cxx1112basic_stringIcSt11char_traitsIcESaIcEEEE12fillFromFileERKS5_
FN:63,76,_ZN5StackIiE12fillFromFileERKNSt7__cxx1112basic_stringIcSt11char_traitsIcESaIcEEE
FN:7,11,_ZN5StackINSt7__cxx1112basic_stringIcSt11char_traitsIcESaIcEEEED2Ev
FN:7,11,_ZN5StackIiED2Ev
FN:78,90,_ZNK5StackINSt7__cxx1112basic_stringIcSt11char_traitsIcESaIcEEEE11writeToFileERKS5_
FN:78,90,_ZNK5StackIiE11writeToFileERKNSt7__cxx1112basic_stringIcSt11char_traitsIcESaIcEEE
FNDA:15,_ZN5StackINSt7__cxx1112basic_stringIcSt11char_traitsIcESaIcEEEE7GetSizeEv
FNDA:15,_ZN5StackIiE7GetSizeEv
FNDA:57,_ZN5StackINSt7__cxx1112basic_stringIcSt11char_traitsIcESaIcEEEE4pushES5_
FNDA:57,_ZN5StackIiE4pushEi
FNDA:57,_ZN5StackINSt7__cxx1112basic_stringIcSt11char_traitsIcESaIcEEEE3popEv
FNDA:57,_ZN5StackIiE3popEv
FNDA:18,_ZN5StackINSt7__cxx1112basic_stringIcSt11char_traitsIcESaIcEEEEC2Ev
FNDA:18,_ZN5StackIiEC2Ev
FNDA:3,_ZN5StackINSt7__cxx1112basic_stringIcSt11char_traitsIcESaIcEEEE5printEv
FNDA:3,_ZN5StackIiE5printEv
FNDA:3,_ZN5StackINSt7__cxx1112basic_stringIcSt11char_traitsIcESaIcEEEE12fillFromFileERKS5_
FNDA:3,_ZN5StackIiE12fillFromFileERKNSt7__cxx1112basic_stringIcSt11char_traitsIcESaIcEEE
FNDA:18,_ZN5StackINSt7__cxx1112basic_stringIcSt11char_traitsIcESaIcEEEED2Ev
FNDA:18,_ZN5StackIiED2Ev
FNDA:3,_ZNK5StackINSt7__cxx1112basic_stringIcSt11char_traitsIcESaIcEEEE11writeToFileERKS5_
FNDA:3,_ZNK5StackIiE11writeToFileERKNSt7__cxx1112basic_stringIcSt11char_traitsIcESaIcEEE
FNF:16
FNH:16
DA:4,36
DA:7,36
DA:8,144
DA:9,108
DA:11,36
DA:14,30
DA:15,30
DA:19,114
DA:20,114
DA:21,36
DA:23,78
DA:24,138
DA:25,60
DA:27,78
DA:29,114
DA:30,114
DA:33,114
DA:34,114
DA:35,0
DA:38,114
DA:39,36
DA:40,36
DA:42,78
DA:43,138
DA:44,60
DA:46,78
DA:47,78
DA:49,114
DA:50,114
DA:53,6
DA:54,6
DA:55,24
DA:56,18
DA:57,18
DA:59,6
DA:60,6
DA:63,6
DA:64,6
DA:65,6
DA:66,0
DA:67,0
DA:70,3
DA:71,36
DA:72,30
DA:75,6
DA:76,6
DA:78,6
DA:79,6
DA:80,6
DA:81,0
DA:82,0
DA:85,6
DA:86,24
DA:87,18
DA:88,18
DA:90,6
LF:56
LH:51
end_of_record
